
timer_int:     file format elf32-littleriscv


Disassembly of section .init:

00000000 <_start>:
   0:	0080006f          	j	8 <_reset_handler>
   4:	0600006f          	j	64 <_timer0_handler>

00000008 <_reset_handler>:
   8:	10000197          	auipc	gp,0x10000
   c:	7f818193          	addi	gp,gp,2040 # 10000800 <__global_pointer$>
  10:	00018113          	mv	sp,gp
  14:	24400513          	li	a0,580
  18:	10000597          	auipc	a1,0x10000
  1c:	fe858593          	addi	a1,a1,-24 # 10000000 <_data>
  20:	10000617          	auipc	a2,0x10000
  24:	fe060613          	addi	a2,a2,-32 # 10000000 <_data>
  28:	00c5fc63          	bgeu	a1,a2,40 <_reset_handler+0x38>
  2c:	00052283          	lw	t0,0(a0)
  30:	0055a023          	sw	t0,0(a1)
  34:	00450513          	addi	a0,a0,4
  38:	00458593          	addi	a1,a1,4
  3c:	fec5e8e3          	bltu	a1,a2,2c <_reset_handler+0x24>
  40:	10000517          	auipc	a0,0x10000
  44:	fc050513          	addi	a0,a0,-64 # 10000000 <_data>
  48:	80818593          	addi	a1,gp,-2040 # 10000008 <_end>
  4c:	00b57863          	bgeu	a0,a1,5c <_reset_handler+0x54>
  50:	00052023          	sw	zero,0(a0)
  54:	00450513          	addi	a0,a0,4
  58:	feb56ce3          	bltu	a0,a1,50 <_reset_handler+0x48>
  5c:	110000ef          	jal	ra,16c <main>

00000060 <loop>:
  60:	0000006f          	j	60 <loop>

00000064 <_timer0_handler>:
  64:	f8010113          	addi	sp,sp,-128
  68:	00112223          	sw	ra,4(sp)
  6c:	00212423          	sw	sp,8(sp)
  70:	00312623          	sw	gp,12(sp)
  74:	00412823          	sw	tp,16(sp)
  78:	00512a23          	sw	t0,20(sp)
  7c:	00612c23          	sw	t1,24(sp)
  80:	00712e23          	sw	t2,28(sp)
  84:	02812023          	sw	s0,32(sp)
  88:	02912223          	sw	s1,36(sp)
  8c:	02a12423          	sw	a0,40(sp)
  90:	02b12623          	sw	a1,44(sp)
  94:	02c12823          	sw	a2,48(sp)
  98:	02d12a23          	sw	a3,52(sp)
  9c:	02e12c23          	sw	a4,56(sp)
  a0:	02f12e23          	sw	a5,60(sp)
  a4:	05012023          	sw	a6,64(sp)
  a8:	05112223          	sw	a7,68(sp)
  ac:	05212423          	sw	s2,72(sp)
  b0:	05312623          	sw	s3,76(sp)
  b4:	05412823          	sw	s4,80(sp)
  b8:	05512a23          	sw	s5,84(sp)
  bc:	05612c23          	sw	s6,88(sp)
  c0:	05712e23          	sw	s7,92(sp)
  c4:	07812023          	sw	s8,96(sp)
  c8:	07912223          	sw	s9,100(sp)
  cc:	07a12423          	sw	s10,104(sp)
  d0:	07b12623          	sw	s11,108(sp)
  d4:	07c12823          	sw	t3,112(sp)
  d8:	07d12a23          	sw	t4,116(sp)
  dc:	07e12c23          	sw	t5,120(sp)
  e0:	07f12e23          	sw	t6,124(sp)
  e4:	110000ef          	jal	ra,1f4 <TIMER0_IRQHandler>
  e8:	00412083          	lw	ra,4(sp)
  ec:	00812103          	lw	sp,8(sp)
  f0:	00c12183          	lw	gp,12(sp)
  f4:	01012203          	lw	tp,16(sp)
  f8:	01412283          	lw	t0,20(sp)
  fc:	01812303          	lw	t1,24(sp)
 100:	01c12383          	lw	t2,28(sp)
 104:	02012403          	lw	s0,32(sp)
 108:	02412483          	lw	s1,36(sp)
 10c:	02812503          	lw	a0,40(sp)
 110:	02c12583          	lw	a1,44(sp)
 114:	03012603          	lw	a2,48(sp)
 118:	03412683          	lw	a3,52(sp)
 11c:	03812703          	lw	a4,56(sp)
 120:	03c12783          	lw	a5,60(sp)
 124:	04012803          	lw	a6,64(sp)
 128:	04412883          	lw	a7,68(sp)
 12c:	04812903          	lw	s2,72(sp)
 130:	04c12983          	lw	s3,76(sp)
 134:	05012a03          	lw	s4,80(sp)
 138:	05412a83          	lw	s5,84(sp)
 13c:	05812b03          	lw	s6,88(sp)
 140:	05c12b83          	lw	s7,92(sp)
 144:	06012c03          	lw	s8,96(sp)
 148:	06412c83          	lw	s9,100(sp)
 14c:	06812d03          	lw	s10,104(sp)
 150:	06c12d83          	lw	s11,108(sp)
 154:	07012e03          	lw	t3,112(sp)
 158:	07412e83          	lw	t4,116(sp)
 15c:	07812f03          	lw	t5,120(sp)
 160:	07c12f83          	lw	t6,124(sp)
 164:	08010113          	addi	sp,sp,128
 168:	30200073          	mret

Disassembly of section .text:

0000016c <main>:
 16c:	ff010113          	addi	sp,sp,-16
 170:	00812623          	sw	s0,12(sp)
 174:	01010413          	addi	s0,sp,16
 178:	10000797          	auipc	a5,0x10000
 17c:	e8878793          	addi	a5,a5,-376 # 10000000 <_data>
 180:	0007a023          	sw	zero,0(a5)
 184:	200007b7          	lui	a5,0x20000
 188:	00878793          	addi	a5,a5,8 # 20000008 <__global_pointer$+0xffff808>
 18c:	0000c737          	lui	a4,0xc
 190:	35070713          	addi	a4,a4,848 # c350 <__stack_size+0xbf50>
 194:	00e7a023          	sw	a4,0(a5)
 198:	200007b7          	lui	a5,0x20000
 19c:	00700713          	li	a4,7
 1a0:	00e7a023          	sw	a4,0(a5) # 20000000 <__global_pointer$+0xffff800>
 1a4:	400007b7          	lui	a5,0x40000
 1a8:	00478793          	addi	a5,a5,4 # 40000004 <__global_pointer$+0x2ffff804>
 1ac:	00100713          	li	a4,1
 1b0:	00e7a023          	sw	a4,0(a5)
 1b4:	10000797          	auipc	a5,0x10000
 1b8:	e4c78793          	addi	a5,a5,-436 # 10000000 <_data>
 1bc:	0007a703          	lw	a4,0(a5)
 1c0:	1f300793          	li	a5,499
 1c4:	fee7f8e3          	bgeu	a5,a4,1b4 <main+0x48>
 1c8:	10000797          	auipc	a5,0x10000
 1cc:	e3878793          	addi	a5,a5,-456 # 10000000 <_data>
 1d0:	0007a023          	sw	zero,0(a5)
 1d4:	400007b7          	lui	a5,0x40000
 1d8:	00478793          	addi	a5,a5,4 # 40000004 <__global_pointer$+0x2ffff804>
 1dc:	0007a703          	lw	a4,0(a5)
 1e0:	400007b7          	lui	a5,0x40000
 1e4:	00478793          	addi	a5,a5,4 # 40000004 <__global_pointer$+0x2ffff804>
 1e8:	00174713          	xori	a4,a4,1
 1ec:	00e7a023          	sw	a4,0(a5)
 1f0:	fc5ff06f          	j	1b4 <main+0x48>

000001f4 <TIMER0_IRQHandler>:
 1f4:	ff010113          	addi	sp,sp,-16
 1f8:	00812623          	sw	s0,12(sp)
 1fc:	01010413          	addi	s0,sp,16
 200:	200007b7          	lui	a5,0x20000
 204:	00700713          	li	a4,7
 208:	00e7a023          	sw	a4,0(a5) # 20000000 <__global_pointer$+0xffff800>
 20c:	10000797          	auipc	a5,0x10000
 210:	df478793          	addi	a5,a5,-524 # 10000000 <_data>
 214:	0007a783          	lw	a5,0(a5)
 218:	00178713          	addi	a4,a5,1
 21c:	10000797          	auipc	a5,0x10000
 220:	de478793          	addi	a5,a5,-540 # 10000000 <_data>
 224:	00e7a023          	sw	a4,0(a5)
 228:	400007b7          	lui	a5,0x40000
 22c:	00478793          	addi	a5,a5,4 # 40000004 <__global_pointer$+0x2ffff804>
 230:	0007a023          	sw	zero,0(a5)
 234:	00000013          	nop
 238:	00c12403          	lw	s0,12(sp)
 23c:	01010113          	addi	sp,sp,16
 240:	00008067          	ret
